target datalayout = "e-m:e-p270:32:32-p271:32:32-p272:64:64-i64:64-i128:128-f80:128-n8:16:32:64-S128"
target triple = "x86_64-pc-linux-gnu"

%struct.expert_field = type { i32, i32 }
%struct.e_in6_addr = type { [16 x i8] }

@hf_sapms_server_lst_client = internal global i32 0, align 4
@hf_sapms_server_lst_name = internal global i32 0, align 4
@hf_sapms_server_lst_host = internal global i32 0, align 4
@hf_sapms_server_lst_service = internal global i32 0, align 4
@hf_sapms_server_lst_msgtypes = internal global i32 0, align 4
@hf_sapms_server_lst_msgtypes_dia = internal global i32 0, align 4
@hf_sapms_server_lst_msgtypes_upd = internal global i32 0, align 4
@hf_sapms_server_lst_msgtypes_enq = internal global i32 0, align 4
@hf_sapms_server_lst_msgtypes_btc = internal global i32 0, align 4
@hf_sapms_server_lst_msgtypes_spo = internal global i32 0, align 4
@hf_sapms_server_lst_msgtypes_up2 = internal global i32 0, align 4
@hf_sapms_server_lst_msgtypes_atp = internal global i32 0, align 4
@hf_sapms_server_lst_msgtypes_icm = internal global i32 0, align 4
@hf_sapms_server_lst_hostaddr = internal global i32 0, align 4
@hf_sapms_server_lst_hostaddrv4 = internal global i32 0, align 4
@hf_sapms_server_lst_servno = internal global i32 0, align 4
@hf_sapms_server_lst_status = internal global i32 0, align 4
@hf_sapms_server_lst_nitrc = internal global i32 0, align 4
@hf_sapms_server_lst_sys_service = internal global i32 0, align 4
@ett_sapms = internal global i32 0, align 4
@ei_sapms_unknown_version = internal global %struct.expert_field zeroinitializer, align 4
@ei_sapms_client_invalid_offset = internal global %struct.expert_field zeroinitializer, align 4
@ei_sapms_client_invalid_length = internal global %struct.expert_field zeroinitializer, align 4
@global_sapms_highlight_items = internal global i8 1, align 1
@.str.646 = private unnamed_addr constant [99 x i8] c"This version has not been seen, dissection of this packet could be wrong for this version (0x%.2x)\00", align 1
@.str.647 = private unnamed_addr constant [47 x i8] c"Invalid client length (expected=%d, actual=%d)\00", align 1

; Function Attrs: null_pointer_is_valid sspstrong uwtable
define internal i32 @dissect_sapms_client(ptr noundef %0, ptr noundef %1, ptr noundef %2, i32 noundef %3, i8 noundef zeroext %4) #0 {
  %6 = alloca i32, align 4
  %7 = alloca ptr, align 8
  %8 = alloca ptr, align 8
  %9 = alloca ptr, align 8
  %10 = alloca i32, align 4
  %11 = alloca i8, align 1
  %12 = alloca ptr, align 8
  %13 = alloca ptr, align 8
  %14 = alloca ptr, align 8
  %15 = alloca ptr, align 8
  %16 = alloca %struct.e_in6_addr, align 1
  %17 = alloca i32, align 4
  %18 = alloca i32, align 4
  %19 = alloca i32, align 4
  %20 = alloca i32, align 4
  store ptr %0, ptr %7, align 8
  store ptr %1, ptr %8, align 8
  store ptr %2, ptr %9, align 8
  store i32 %3, ptr %10, align 4
  store i8 %4, ptr %11, align 1
  call void @llvm.lifetime.start.p0(i64 8, ptr %12) #3
  store ptr null, ptr %12, align 8
  call void @llvm.lifetime.start.p0(i64 8, ptr %13) #3
  store ptr null, ptr %13, align 8
  call void @llvm.lifetime.start.p0(i64 8, ptr %14) #3
  store ptr null, ptr %14, align 8
  call void @llvm.lifetime.start.p0(i64 8, ptr %15) #3
  store ptr null, ptr %15, align 8
  call void @llvm.lifetime.start.p0(i64 16, ptr %16) #3
  call void @llvm.lifetime.start.p0(i64 4, ptr %17) #3
  store i32 0, ptr %17, align 4
  call void @llvm.lifetime.start.p0(i64 4, ptr %18) #3
  store i32 0, ptr %18, align 4
  call void @llvm.lifetime.start.p0(i64 4, ptr %19) #3
  store i32 0, ptr %19, align 4
  %21 = load i8, ptr %11, align 1
  %22 = zext i8 %21 to i32
  %23 = icmp eq i32 %22, 1
  br i1 %23, label %24, label %25

24:                                               ; preds = %5
  store i32 67, ptr %18, align 4
  br label %53

25:                                               ; preds = %5
  %26 = load i8, ptr %11, align 1
  %27 = zext i8 %26 to i32
  %28 = icmp eq i32 %27, 2
  br i1 %28, label %29, label %30

29:                                               ; preds = %25
  store i32 115, ptr %18, align 4
  br label %52

30:                                               ; preds = %25
  %31 = load i8, ptr %11, align 1
  %32 = zext i8 %31 to i32
  %33 = icmp eq i32 %32, 3
  br i1 %33, label %34, label %35

34:                                               ; preds = %30
  store i32 150, ptr %18, align 4
  br label %51

35:                                               ; preds = %30
  %36 = load i8, ptr %11, align 1
  %37 = zext i8 %36 to i32
  %38 = icmp eq i32 %37, 4
  br i1 %38, label %39, label %40

39:                                               ; preds = %35
  store i32 160, ptr %18, align 4
  br label %50

40:                                               ; preds = %35
  store i32 160, ptr %18, align 4
  %41 = load i8, ptr @global_sapms_highlight_items, align 1, !range !6, !noundef !7
  %42 = trunc i8 %41 to i1
  br i1 %42, label %43, label %49

43:                                               ; preds = %40
  %44 = load ptr, ptr %8, align 8
  %45 = load ptr, ptr %9, align 8
  %46 = load i8, ptr %11, align 1
  %47 = zext i8 %46 to i32
  %48 = call ptr (ptr, ptr, ptr, ptr, ...) @expert_add_info_format(ptr noundef %44, ptr noundef %45, ptr noundef @ei_sapms_unknown_version, ptr noundef @.str.646, i32 noundef %47)
  br label %49

49:                                               ; preds = %43, %40
  br label %50

50:                                               ; preds = %49, %39
  br label %51

51:                                               ; preds = %50, %34
  br label %52

52:                                               ; preds = %51, %29
  br label %53

53:                                               ; preds = %52, %24
  %54 = load ptr, ptr %7, align 8
  %55 = load i32, ptr %10, align 4
  %56 = call i32 @tvb_reported_length_remaining(ptr noundef %54, i32 noundef %55)
  store i32 %56, ptr %19, align 4
  %57 = load i32, ptr %19, align 4
  %58 = icmp slt i32 %57, 0
  br i1 %58, label %59, label %63

59:                                               ; preds = %53
  %60 = load ptr, ptr %8, align 8
  %61 = load ptr, ptr %9, align 8
  %62 = call ptr @expert_add_info(ptr noundef %60, ptr noundef %61, ptr noundef @ei_sapms_client_invalid_offset)
  store i32 0, ptr %6, align 4
  store i32 1, ptr %20, align 4
  br label %256

63:                                               ; preds = %53
  %64 = load i32, ptr %19, align 4
  %65 = load i32, ptr %18, align 4
  %66 = icmp slt i32 %64, %65
  br i1 %66, label %67, label %74

67:                                               ; preds = %63
  %68 = load ptr, ptr %8, align 8
  %69 = load ptr, ptr %9, align 8
  %70 = load i32, ptr %18, align 4
  %71 = load i32, ptr %19, align 4
  %72 = call ptr (ptr, ptr, ptr, ptr, ...) @expert_add_info_format(ptr noundef %68, ptr noundef %69, ptr noundef @ei_sapms_client_invalid_length, ptr noundef @.str.647, i32 noundef %70, i32 noundef %71)
  %73 = load i32, ptr %19, align 4
  store i32 %73, ptr %6, align 4
  store i32 1, ptr %20, align 4
  br label %256

74:                                               ; preds = %63
  %75 = load ptr, ptr %9, align 8
  %76 = load i32, ptr @hf_sapms_server_lst_client, align 4
  %77 = load ptr, ptr %7, align 8
  %78 = load i32, ptr %10, align 4
  %79 = load i32, ptr %18, align 4
  %80 = call ptr @proto_tree_add_item(ptr noundef %75, i32 noundef %76, ptr noundef %77, i32 noundef %78, i32 noundef %79, i32 noundef 0)
  store ptr %80, ptr %12, align 8
  %81 = load ptr, ptr %12, align 8
  %82 = load i32, ptr @ett_sapms, align 4
  %83 = call ptr @proto_item_add_subtree(ptr noundef %81, i32 noundef %82)
  store ptr %83, ptr %14, align 8
  %84 = load i8, ptr %11, align 1
  %85 = zext i8 %84 to i32
  %86 = icmp eq i32 %85, 1
  br i1 %86, label %87, label %95

87:                                               ; preds = %74
  %88 = load ptr, ptr %14, align 8
  %89 = load i32, ptr @hf_sapms_server_lst_name, align 4
  %90 = load ptr, ptr %7, align 8
  %91 = load i32, ptr %10, align 4
  %92 = call ptr @proto_tree_add_item(ptr noundef %88, i32 noundef %89, ptr noundef %90, i32 noundef %91, i32 noundef 20, i32 noundef 0)
  %93 = load i32, ptr %10, align 4
  %94 = add i32 %93, 20
  store i32 %94, ptr %10, align 4
  br label %103

95:                                               ; preds = %74
  %96 = load ptr, ptr %14, align 8
  %97 = load i32, ptr @hf_sapms_server_lst_name, align 4
  %98 = load ptr, ptr %7, align 8
  %99 = load i32, ptr %10, align 4
  %100 = call ptr @proto_tree_add_item(ptr noundef %96, i32 noundef %97, ptr noundef %98, i32 noundef %99, i32 noundef 40, i32 noundef 0)
  %101 = load i32, ptr %10, align 4
  %102 = add i32 %101, 40
  store i32 %102, ptr %10, align 4
  br label %103

103:                                              ; preds = %95, %87
  %104 = load i8, ptr %11, align 1
  %105 = zext i8 %104 to i32
  %106 = icmp eq i32 %105, 1
  br i1 %106, label %107, label %115

107:                                              ; preds = %103
  %108 = load ptr, ptr %14, align 8
  %109 = load i32, ptr @hf_sapms_server_lst_host, align 4
  %110 = load ptr, ptr %7, align 8
  %111 = load i32, ptr %10, align 4
  %112 = call ptr @proto_tree_add_item(ptr noundef %108, i32 noundef %109, ptr noundef %110, i32 noundef %111, i32 noundef 20, i32 noundef 0)
  %113 = load i32, ptr %10, align 4
  %114 = add i32 %113, 20
  store i32 %114, ptr %10, align 4
  br label %136

115:                                              ; preds = %103
  %116 = load i8, ptr %11, align 1
  %117 = zext i8 %116 to i32
  %118 = icmp eq i32 %117, 2
  br i1 %118, label %119, label %127

119:                                              ; preds = %115
  %120 = load ptr, ptr %14, align 8
  %121 = load i32, ptr @hf_sapms_server_lst_host, align 4
  %122 = load ptr, ptr %7, align 8
  %123 = load i32, ptr %10, align 4
  %124 = call ptr @proto_tree_add_item(ptr noundef %120, i32 noundef %121, ptr noundef %122, i32 noundef %123, i32 noundef 32, i32 noundef 0)
  %125 = load i32, ptr %10, align 4
  %126 = add i32 %125, 32
  store i32 %126, ptr %10, align 4
  br label %135

127:                                              ; preds = %115
  %128 = load ptr, ptr %14, align 8
  %129 = load i32, ptr @hf_sapms_server_lst_host, align 4
  %130 = load ptr, ptr %7, align 8
  %131 = load i32, ptr %10, align 4
  %132 = call ptr @proto_tree_add_item(ptr noundef %128, i32 noundef %129, ptr noundef %130, i32 noundef %131, i32 noundef 64, i32 noundef 0)
  %133 = load i32, ptr %10, align 4
  %134 = add i32 %133, 64
  store i32 %134, ptr %10, align 4
  br label %135

135:                                              ; preds = %127, %119
  br label %136

136:                                              ; preds = %135, %107
  %137 = load ptr, ptr %14, align 8
  %138 = load i32, ptr @hf_sapms_server_lst_service, align 4
  %139 = load ptr, ptr %7, align 8
  %140 = load i32, ptr %10, align 4
  %141 = call ptr @proto_tree_add_item(ptr noundef %137, i32 noundef %138, ptr noundef %139, i32 noundef %140, i32 noundef 20, i32 noundef 0)
  %142 = load i32, ptr %10, align 4
  %143 = add i32 %142, 20
  store i32 %143, ptr %10, align 4
  %144 = load ptr, ptr %14, align 8
  %145 = load i32, ptr @hf_sapms_server_lst_msgtypes, align 4
  %146 = load ptr, ptr %7, align 8
  %147 = load i32, ptr %10, align 4
  %148 = call ptr @proto_tree_add_item(ptr noundef %144, i32 noundef %145, ptr noundef %146, i32 noundef %147, i32 noundef 1, i32 noundef 0)
  store ptr %148, ptr %13, align 8
  %149 = load ptr, ptr %13, align 8
  %150 = load i32, ptr @ett_sapms, align 4
  %151 = call ptr @proto_item_add_subtree(ptr noundef %149, i32 noundef %150)
  store ptr %151, ptr %15, align 8
  %152 = load ptr, ptr %15, align 8
  %153 = load i32, ptr @hf_sapms_server_lst_msgtypes_dia, align 4
  %154 = load ptr, ptr %7, align 8
  %155 = load i32, ptr %10, align 4
  %156 = call ptr @proto_tree_add_item(ptr noundef %152, i32 noundef %153, ptr noundef %154, i32 noundef %155, i32 noundef 1, i32 noundef 0)
  %157 = load ptr, ptr %15, align 8
  %158 = load i32, ptr @hf_sapms_server_lst_msgtypes_upd, align 4
  %159 = load ptr, ptr %7, align 8
  %160 = load i32, ptr %10, align 4
  %161 = call ptr @proto_tree_add_item(ptr noundef %157, i32 noundef %158, ptr noundef %159, i32 noundef %160, i32 noundef 1, i32 noundef 0)
  %162 = load ptr, ptr %15, align 8
  %163 = load i32, ptr @hf_sapms_server_lst_msgtypes_enq, align 4
  %164 = load ptr, ptr %7, align 8
  %165 = load i32, ptr %10, align 4
  %166 = call ptr @proto_tree_add_item(ptr noundef %162, i32 noundef %163, ptr noundef %164, i32 noundef %165, i32 noundef 1, i32 noundef 0)
  %167 = load ptr, ptr %15, align 8
  %168 = load i32, ptr @hf_sapms_server_lst_msgtypes_btc, align 4
  %169 = load ptr, ptr %7, align 8
  %170 = load i32, ptr %10, align 4
  %171 = call ptr @proto_tree_add_item(ptr noundef %167, i32 noundef %168, ptr noundef %169, i32 noundef %170, i32 noundef 1, i32 noundef 0)
  %172 = load ptr, ptr %15, align 8
  %173 = load i32, ptr @hf_sapms_server_lst_msgtypes_spo, align 4
  %174 = load ptr, ptr %7, align 8
  %175 = load i32, ptr %10, align 4
  %176 = call ptr @proto_tree_add_item(ptr noundef %172, i32 noundef %173, ptr noundef %174, i32 noundef %175, i32 noundef 1, i32 noundef 0)
  %177 = load ptr, ptr %15, align 8
  %178 = load i32, ptr @hf_sapms_server_lst_msgtypes_up2, align 4
  %179 = load ptr, ptr %7, align 8
  %180 = load i32, ptr %10, align 4
  %181 = call ptr @proto_tree_add_item(ptr noundef %177, i32 noundef %178, ptr noundef %179, i32 noundef %180, i32 noundef 1, i32 noundef 0)
  %182 = load ptr, ptr %15, align 8
  %183 = load i32, ptr @hf_sapms_server_lst_msgtypes_atp, align 4
  %184 = load ptr, ptr %7, align 8
  %185 = load i32, ptr %10, align 4
  %186 = call ptr @proto_tree_add_item(ptr noundef %182, i32 noundef %183, ptr noundef %184, i32 noundef %185, i32 noundef 1, i32 noundef 0)
  %187 = load ptr, ptr %15, align 8
  %188 = load i32, ptr @hf_sapms_server_lst_msgtypes_icm, align 4
  %189 = load ptr, ptr %7, align 8
  %190 = load i32, ptr %10, align 4
  %191 = call ptr @proto_tree_add_item(ptr noundef %187, i32 noundef %188, ptr noundef %189, i32 noundef %190, i32 noundef 1, i32 noundef 0)
  %192 = load i32, ptr %10, align 4
  %193 = add i32 %192, 1
  store i32 %193, ptr %10, align 4
  %194 = load i8, ptr %11, align 1
  %195 = zext i8 %194 to i32
  %196 = icmp sge i32 %195, 3
  br i1 %196, label %197, label %207

197:                                              ; preds = %136
  %198 = load ptr, ptr %7, align 8
  %199 = load i32, ptr %10, align 4
  call void @tvb_get_ipv6(ptr noundef %198, i32 noundef %199, ptr noundef %16)
  %200 = load ptr, ptr %14, align 8
  %201 = load i32, ptr @hf_sapms_server_lst_hostaddr, align 4
  %202 = load ptr, ptr %7, align 8
  %203 = load i32, ptr %10, align 4
  %204 = call ptr @proto_tree_add_ipv6(ptr noundef %200, i32 noundef %201, ptr noundef %202, i32 noundef %203, i32 noundef 16, ptr noundef %16)
  %205 = load i32, ptr %10, align 4
  %206 = add i32 %205, 16
  store i32 %206, ptr %10, align 4
  br label %207

207:                                              ; preds = %197, %136
  %208 = load ptr, ptr %7, align 8
  %209 = load i32, ptr %10, align 4
  %210 = call i32 @tvb_get_ipv4(ptr noundef %208, i32 noundef %209)
  store i32 %210, ptr %17, align 4
  %211 = load ptr, ptr %14, align 8
  %212 = load i32, ptr @hf_sapms_server_lst_hostaddrv4, align 4
  %213 = load ptr, ptr %7, align 8
  %214 = load i32, ptr %10, align 4
  %215 = load i32, ptr %17, align 4
  %216 = call ptr @proto_tree_add_ipv4(ptr noundef %211, i32 noundef %212, ptr noundef %213, i32 noundef %214, i32 noundef 4, i32 noundef %215)
  %217 = load i32, ptr %10, align 4
  %218 = add i32 %217, 4
  store i32 %218, ptr %10, align 4
  %219 = load ptr, ptr %14, align 8
  %220 = load i32, ptr @hf_sapms_server_lst_servno, align 4
  %221 = load ptr, ptr %7, align 8
  %222 = load i32, ptr %10, align 4
  %223 = call ptr @proto_tree_add_item(ptr noundef %219, i32 noundef %220, ptr noundef %221, i32 noundef %222, i32 noundef 2, i32 noundef 0)
  %224 = load i32, ptr %10, align 4
  %225 = add i32 %224, 2
  store i32 %225, ptr %10, align 4
  %226 = load i8, ptr %11, align 1
  %227 = zext i8 %226 to i32
  %228 = icmp sge i32 %227, 2
  br i1 %228, label %229, label %244

229:                                              ; preds = %207
  %230 = load ptr, ptr %14, align 8
  %231 = load i32, ptr @hf_sapms_server_lst_status, align 4
  %232 = load ptr, ptr %7, align 8
  %233 = load i32, ptr %10, align 4
  %234 = call ptr @proto_tree_add_item(ptr noundef %230, i32 noundef %231, ptr noundef %232, i32 noundef %233, i32 noundef 1, i32 noundef 0)
  %235 = load i32, ptr %10, align 4
  %236 = add i32 %235, 1
  store i32 %236, ptr %10, align 4
  %237 = load ptr, ptr %14, align 8
  %238 = load i32, ptr @hf_sapms_server_lst_nitrc, align 4
  %239 = load ptr, ptr %7, align 8
  %240 = load i32, ptr %10, align 4
  %241 = call ptr @proto_tree_add_item(ptr noundef %237, i32 noundef %238, ptr noundef %239, i32 noundef %240, i32 noundef 1, i32 noundef 0)
  %242 = load i32, ptr %10, align 4
  %243 = add i32 %242, 1
  store i32 %243, ptr %10, align 4
  br label %244

244:                                              ; preds = %229, %207
  %245 = load i8, ptr %11, align 1
  %246 = zext i8 %245 to i32
  %247 = icmp eq i32 %246, 4
  br i1 %247, label %248, label %254

248:                                              ; preds = %244
  %249 = load ptr, ptr %14, align 8
  %250 = load i32, ptr @hf_sapms_server_lst_sys_service, align 4
  %251 = load ptr, ptr %7, align 8
  %252 = load i32, ptr %10, align 4
  %253 = call ptr @proto_tree_add_item(ptr noundef %249, i32 noundef %250, ptr noundef %251, i32 noundef %252, i32 noundef 4, i32 noundef 0)
  br label %254

254:                                              ; preds = %248, %244
  %255 = load i32, ptr %18, align 4
  store i32 %255, ptr %6, align 4
  store i32 1, ptr %20, align 4
  br label %256

256:                                              ; preds = %254, %67, %59
  call void @llvm.lifetime.end.p0(i64 4, ptr %19) #3
  call void @llvm.lifetime.end.p0(i64 4, ptr %18) #3
  call void @llvm.lifetime.end.p0(i64 4, ptr %17) #3
  call void @llvm.lifetime.end.p0(i64 16, ptr %16) #3
  call void @llvm.lifetime.end.p0(i64 8, ptr %15) #3
  call void @llvm.lifetime.end.p0(i64 8, ptr %14) #3
  call void @llvm.lifetime.end.p0(i64 8, ptr %13) #3
  call void @llvm.lifetime.end.p0(i64 8, ptr %12) #3
  %257 = load i32, ptr %6, align 4
  ret i32 %257
}