; Function Attrs: null_pointer_is_valid sspstrong uwtable
define internal fastcc range(i32 0, 161) i32 @dissect_sapms_client(ptr noundef %0, ptr noundef %1, ptr noundef %2, i32 noundef %3, i8 noundef zeroext %4) unnamed_addr #0 {
  %6 = alloca %struct.e_in6_addr, align 1
  call void @llvm.lifetime.start.p0(i64 16, ptr nonnull %6) #4
  %7 = zext i8 %4 to i32
  %8 = icmp eq i8 %4, 1
  br i1 %8, label %17, label %9

9:                                                ; preds = %5
  %switch.tableidx = add i8 %4, -2
  %10 = icmp ult i8 %switch.tableidx, 3
  br i1 %10, label %switch.lookup, label %11

11:                                               ; preds = %9
  %12 = load i8, ptr @global_sapms_highlight_items, align 1, !range !10, !noundef !11
  %13 = trunc nuw i8 %12 to i1
  br i1 %13, label %14, label %17

14:                                               ; preds = %11
  %15 = tail call ptr (ptr, ptr, ptr, ptr, ...) @expert_add_info_format(ptr noundef %1, ptr noundef %2, ptr noundef nonnull @ei_sapms_unknown_version, ptr noundef nonnull @.str.646, i32 noundef %7)
  br label %17

switch.lookup:                                    ; preds = %9
  %16 = zext nneg i8 %switch.tableidx to i64
  %switch.gep = getelementptr inbounds nuw [3 x i32], ptr @switch.table.dissect_sapms_client, i64 0, i64 %16
  %switch.load = load i32, ptr %switch.gep, align 4
  br label %17

17:                                               ; preds = %switch.lookup, %5, %14, %11
  %.0 = phi i32 [ 160, %14 ], [ 160, %11 ], [ 67, %5 ], [ %switch.load, %switch.lookup ]
  %18 = tail call i32 @tvb_reported_length_remaining(ptr noundef %0, i32 noundef %3)
  %19 = icmp slt i32 %18, 0
  br i1 %19, label %20, label %22

20:                                               ; preds = %17
  %21 = tail call ptr @expert_add_info(ptr noundef %1, ptr noundef %2, ptr noundef nonnull @ei_sapms_client_invalid_offset)
  br label %.thread119

22:                                               ; preds = %17
  %23 = icmp samesign ult i32 %18, %.0
  br i1 %23, label %24, label %26

24:                                               ; preds = %22
  %25 = tail call ptr (ptr, ptr, ptr, ptr, ...) @expert_add_info_format(ptr noundef %1, ptr noundef %2, ptr noundef nonnull @ei_sapms_client_invalid_length, ptr noundef nonnull @.str.647, i32 noundef %.0, i32 noundef %18)
  br label %.thread119

26:                                               ; preds = %22
  %27 = load i32, ptr @hf_sapms_server_lst_client, align 4
  %28 = tail call ptr @proto_tree_add_item(ptr noundef %2, i32 noundef %27, ptr noundef %0, i32 noundef %3, i32 noundef %.0, i32 noundef 0)
  %29 = load i32, ptr @ett_sapms, align 4
  %30 = tail call ptr @proto_item_add_subtree(ptr noundef %28, i32 noundef %29)
  %31 = load i32, ptr @hf_sapms_server_lst_name, align 4
  br i1 %8, label %32, label %37

32:                                               ; preds = %26
  %33 = tail call ptr @proto_tree_add_item(ptr noundef %30, i32 noundef %31, ptr noundef %0, i32 noundef %3, i32 noundef 20, i32 noundef 0)
  %34 = add i32 %3, 20
  %35 = load i32, ptr @hf_sapms_server_lst_host, align 4
  %36 = tail call ptr @proto_tree_add_item(ptr noundef %30, i32 noundef %35, ptr noundef %0, i32 noundef %34, i32 noundef 20, i32 noundef 0)
  br label %46

37:                                               ; preds = %26
  %38 = tail call ptr @proto_tree_add_item(ptr noundef %30, i32 noundef %31, ptr noundef %0, i32 noundef %3, i32 noundef 40, i32 noundef 0)
  %39 = add i32 %3, 40
  %40 = icmp eq i8 %4, 2
  %41 = load i32, ptr @hf_sapms_server_lst_host, align 4
  br i1 %40, label %42, label %44

42:                                               ; preds = %37
  %43 = tail call ptr @proto_tree_add_item(ptr noundef %30, i32 noundef %41, ptr noundef %0, i32 noundef %39, i32 noundef 32, i32 noundef 0)
  br label %46

44:                                               ; preds = %37
  %45 = tail call ptr @proto_tree_add_item(ptr noundef %30, i32 noundef %41, ptr noundef %0, i32 noundef %39, i32 noundef 64, i32 noundef 0)
  br label %46

46:                                               ; preds = %42, %44, %32
  %.sink = phi i32 [ 72, %42 ], [ 104, %44 ], [ 40, %32 ]
  %47 = add i32 %3, %.sink
  %48 = load i32, ptr @hf_sapms_server_lst_service, align 4
  %49 = tail call ptr @proto_tree_add_item(ptr noundef %30, i32 noundef %48, ptr noundef %0, i32 noundef %47, i32 noundef 20, i32 noundef 0)
  %50 = add i32 %47, 20
  %51 = load i32, ptr @hf_sapms_server_lst_msgtypes, align 4
  %52 = tail call ptr @proto_tree_add_item(ptr noundef %30, i32 noundef %51, ptr noundef %0, i32 noundef %50, i32 noundef 1, i32 noundef 0)
  %53 = load i32, ptr @ett_sapms, align 4
  %54 = tail call ptr @proto_item_add_subtree(ptr noundef %52, i32 noundef %53)
  %55 = load i32, ptr @hf_sapms_server_lst_msgtypes_dia, align 4
  %56 = tail call ptr @proto_tree_add_item(ptr noundef %54, i32 noundef %55, ptr noundef %0, i32 noundef %50, i32 noundef 1, i32 noundef 0)
  %57 = load i32, ptr @hf_sapms_server_lst_msgtypes_upd, align 4
  %58 = tail call ptr @proto_tree_add_item(ptr noundef %54, i32 noundef %57, ptr noundef %0, i32 noundef %50, i32 noundef 1, i32 noundef 0)
  %59 = load i32, ptr @hf_sapms_server_lst_msgtypes_enq, align 4
  %60 = tail call ptr @proto_tree_add_item(ptr noundef %54, i32 noundef %59, ptr noundef %0, i32 noundef %50, i32 noundef 1, i32 noundef 0)
  %61 = load i32, ptr @hf_sapms_server_lst_msgtypes_btc, align 4
  %62 = tail call ptr @proto_tree_add_item(ptr noundef %54, i32 noundef %61, ptr noundef %0, i32 noundef %50, i32 noundef 1, i32 noundef 0)
  %63 = load i32, ptr @hf_sapms_server_lst_msgtypes_spo, align 4
  %64 = tail call ptr @proto_tree_add_item(ptr noundef %54, i32 noundef %63, ptr noundef %0, i32 noundef %50, i32 noundef 1, i32 noundef 0)
  %65 = load i32, ptr @hf_sapms_server_lst_msgtypes_up2, align 4
  %66 = tail call ptr @proto_tree_add_item(ptr noundef %54, i32 noundef %65, ptr noundef %0, i32 noundef %50, i32 noundef 1, i32 noundef 0)
  %67 = load i32, ptr @hf_sapms_server_lst_msgtypes_atp, align 4
  %68 = tail call ptr @proto_tree_add_item(ptr noundef %54, i32 noundef %67, ptr noundef %0, i32 noundef %50, i32 noundef 1, i32 noundef 0)
  %69 = load i32, ptr @hf_sapms_server_lst_msgtypes_icm, align 4
  %70 = tail call ptr @proto_tree_add_item(ptr noundef %54, i32 noundef %69, ptr noundef %0, i32 noundef %50, i32 noundef 1, i32 noundef 0)
  %71 = add i32 %47, 21
  %72 = icmp ugt i8 %4, 2
  br i1 %72, label %73, label %77

73:                                               ; preds = %46
  call void @tvb_get_ipv6(ptr noundef %0, i32 noundef %71, ptr noundef nonnull %6)
  %74 = load i32, ptr @hf_sapms_server_lst_hostaddr, align 4
  %75 = call ptr @proto_tree_add_ipv6(ptr noundef %30, i32 noundef %74, ptr noundef %0, i32 noundef %71, i32 noundef 16, ptr noundef nonnull %6)
  %76 = add i32 %47, 37
  br label %77

77:                                               ; preds = %73, %46
  %.2 = phi i32 [ %76, %73 ], [ %71, %46 ]
  %78 = call i32 @tvb_get_ipv4(ptr noundef %0, i32 noundef %.2)
  %79 = load i32, ptr @hf_sapms_server_lst_hostaddrv4, align 4
  %80 = call ptr @proto_tree_add_ipv4(ptr noundef %30, i32 noundef %79, ptr noundef %0, i32 noundef %.2, i32 noundef 4, i32 noundef %78)
  %81 = add i32 %.2, 4
  %82 = load i32, ptr @hf_sapms_server_lst_servno, align 4
  %83 = call ptr @proto_tree_add_item(ptr noundef %30, i32 noundef %82, ptr noundef %0, i32 noundef %81, i32 noundef 2, i32 noundef 0)
  %84 = icmp ugt i8 %4, 1
  br i1 %84, label %85, label %.thread119

85:                                               ; preds = %77
  %86 = add i32 %.2, 6
  %87 = load i32, ptr @hf_sapms_server_lst_status, align 4
  %88 = call ptr @proto_tree_add_item(ptr noundef %30, i32 noundef %87, ptr noundef %0, i32 noundef %86, i32 noundef 1, i32 noundef 0)
  %89 = add i32 %.2, 7
  %90 = load i32, ptr @hf_sapms_server_lst_nitrc, align 4
  %91 = call ptr @proto_tree_add_item(ptr noundef %30, i32 noundef %90, ptr noundef %0, i32 noundef %89, i32 noundef 1, i32 noundef 0)
  %92 = icmp eq i8 %4, 4
  br i1 %92, label %93, label %.thread119

93:                                               ; preds = %85
  %94 = add i32 %.2, 8
  %95 = load i32, ptr @hf_sapms_server_lst_sys_service, align 4
  %96 = call ptr @proto_tree_add_item(ptr noundef %30, i32 noundef %95, ptr noundef %0, i32 noundef %94, i32 noundef 4, i32 noundef 0)
  br label %.thread119

.thread119:                                       ; preds = %77, %85, %93, %24, %20
  %.0112 = phi i32 [ 0, %20 ], [ %18, %24 ], [ %.0, %93 ], [ %.0, %85 ], [ %.0, %77 ]
  call void @llvm.lifetime.end.p0(i64 16, ptr nonnull %6) #4
  ret i32 %.0112
}